; ModuleID = '21/553.cpp'
source_filename = "21/553.cpp"
target datalayout = "e-m:e-p270:32:32-p271:32:32-p272:64:64-i64:64-f80:128-n8:16:32:64-S128"
target triple = "x86_64-pc-linux-gnu"

%"class.std::ios_base::Init" = type { i8 }
%"class.std::basic_istream" = type { i32 (...)**, i64, %"class.std::basic_ios" }
%"class.std::basic_ios" = type { %"class.std::ios_base", %"class.std::basic_ostream"*, i8, i8, %"class.std::basic_streambuf"*, %"class.std::ctype"*, %"class.std::num_put"*, %"class.std::num_get"* }
%"class.std::ios_base" = type { i32 (...)**, i64, i64, i32, i32, i32, %"struct.std::ios_base::_Callback_list"*, %"struct.std::ios_base::_Words", [8 x %"struct.std::ios_base::_Words"], i32, %"struct.std::ios_base::_Words"*, %"class.std::locale" }
%"struct.std::ios_base::_Callback_list" = type { %"struct.std::ios_base::_Callback_list"*, void (i32, %"class.std::ios_base"*, i32)*, i32, i32 }
%"struct.std::ios_base::_Words" = type { i8*, i64 }
%"class.std::locale" = type { %"class.std::locale::_Impl"* }
%"class.std::locale::_Impl" = type { i32, %"class.std::locale::facet"**, i64, %"class.std::locale::facet"**, i8** }
%"class.std::locale::facet" = type <{ i32 (...)**, i32, [4 x i8] }>
%"class.std::basic_ostream" = type { i32 (...)**, %"class.std::basic_ios" }
%"class.std::basic_streambuf" = type { i32 (...)**, i8*, i8*, i8*, i8*, i8*, i8*, %"class.std::locale" }
%"class.std::ctype" = type <{ %"class.std::locale::facet.base", [4 x i8], %struct.__locale_struct*, i8, [7 x i8], i32*, i32*, i16*, i8, [256 x i8], [256 x i8], i8, [6 x i8] }>
%"class.std::locale::facet.base" = type <{ i32 (...)**, i32 }>
%struct.__locale_struct = type { [13 x %struct.__locale_data*], i16*, i32*, i32*, [13 x i8*] }
%struct.__locale_data = type opaque
%"class.std::num_put" = type { %"class.std::locale::facet.base", [4 x i8] }
%"class.std::num_get" = type { %"class.std::locale::facet.base", [4 x i8] }

@_ZStL8__ioinit = internal global %"class.std::ios_base::Init" zeroinitializer, align 1
@__dso_handle = external hidden global i8
@_ZSt3cin = external dso_local global %"class.std::basic_istream", align 8
@_ZSt4cout = external dso_local global %"class.std::basic_ostream", align 8
@llvm.global_ctors = appending global [1 x { i32, void ()*, i8* }] [{ i32, void ()*, i8* } { i32 65535, void ()* @_GLOBAL__sub_I_553.cpp, i8* null }]

; Function Attrs: noinline uwtable
define internal void @__cxx_global_var_init() #0 section ".text.startup" {
  call void @_ZNSt8ios_base4InitC1Ev(%"class.std::ios_base::Init"* @_ZStL8__ioinit)
  %1 = call i32 @__cxa_atexit(void (i8*)* bitcast (void (%"class.std::ios_base::Init"*)* @_ZNSt8ios_base4InitD1Ev to void (i8*)*), i8* getelementptr inbounds (%"class.std::ios_base::Init", %"class.std::ios_base::Init"* @_ZStL8__ioinit, i32 0, i32 0), i8* @__dso_handle) #3
  ret void
}

declare dso_local void @_ZNSt8ios_base4InitC1Ev(%"class.std::ios_base::Init"*) unnamed_addr #1

; Function Attrs: nounwind
declare dso_local void @_ZNSt8ios_base4InitD1Ev(%"class.std::ios_base::Init"*) unnamed_addr #2

; Function Attrs: nounwind
declare dso_local i32 @__cxa_atexit(void (i8*)*, i8*, i8*) #3

; Function Attrs: noinline norecurse uwtable
define dso_local i32 @main() #4 {
  %1 = alloca i32, align 4
  %2 = alloca i32, align 4
  %3 = alloca i32, align 4
  %4 = alloca i32, align 4
  %5 = alloca double, align 8
  %6 = alloca double, align 8
  %7 = alloca [100 x double], align 16
  %8 = alloca double, align 8
  store i32 0, i32* %1, align 4
  store double 0.000000e+00, double* %5, align 8
  store double 0.000000e+00, double* %6, align 8
  %9 = call dereferenceable(280) %"class.std::basic_istream"* @_ZNSirsERi(%"class.std::basic_istream"* @_ZSt3cin, i32* dereferenceable(4) %2)
  store i32 0, i32* %3, align 4
  br label %10

10:                                               ; preds = %25, %0
  %11 = load i32, i32* %3, align 4
  %12 = load i32, i32* %2, align 4
  %13 = icmp slt i32 %11, %12
  br i1 %13, label %14, label %28

14:                                               ; preds = %10
  %15 = load i32, i32* %3, align 4
  %16 = sext i32 %15 to i64
  %17 = getelementptr inbounds [100 x double], [100 x double]* %7, i64 0, i64 %16
  %18 = call dereferenceable(280) %"class.std::basic_istream"* @_ZNSirsERd(%"class.std::basic_istream"* @_ZSt3cin, double* dereferenceable(8) %17)
  %19 = load i32, i32* %3, align 4
  %20 = sext i32 %19 to i64
  %21 = getelementptr inbounds [100 x double], [100 x double]* %7, i64 0, i64 %20
  %22 = load double, double* %21, align 8
  %23 = load double, double* %5, align 8
  %24 = fadd double %23, %22
  store double %24, double* %5, align 8
  br label %25

25:                                               ; preds = %14
  %26 = load i32, i32* %3, align 4
  %27 = add nsw i32 %26, 1
  store i32 %27, i32* %3, align 4
  br label %10

28:                                               ; preds = %10
  %29 = load i32, i32* %2, align 4
  %30 = sitofp i32 %29 to double
  %31 = load double, double* %5, align 8
  %32 = fdiv double %31, %30
  store double %32, double* %5, align 8
  store i32 0, i32* %3, align 4
  br label %33

33:                                               ; preds = %77, %28
  %34 = load i32, i32* %3, align 4
  %35 = load i32, i32* %2, align 4
  %36 = icmp slt i32 %34, %35
  br i1 %36, label %37, label %80

37:                                               ; preds = %33
  store i32 0, i32* %4, align 4
  br label %38

38:                                               ; preds = %73, %37
  %39 = load i32, i32* %4, align 4
  %40 = load i32, i32* %2, align 4
  %41 = sub nsw i32 %40, 1
  %42 = icmp slt i32 %39, %41
  br i1 %42, label %43, label %76

43:                                               ; preds = %38
  %44 = load i32, i32* %4, align 4
  %45 = sext i32 %44 to i64
  %46 = getelementptr inbounds [100 x double], [100 x double]* %7, i64 0, i64 %45
  %47 = load double, double* %46, align 8
  %48 = load i32, i32* %4, align 4
  %49 = add nsw i32 %48, 1
  %50 = sext i32 %49 to i64
  %51 = getelementptr inbounds [100 x double], [100 x double]* %7, i64 0, i64 %50
  %52 = load double, double* %51, align 8
  %53 = fcmp ogt double %47, %52
  br i1 %53, label %54, label %72

54:                                               ; preds = %43
  %55 = load i32, i32* %4, align 4
  %56 = sext i32 %55 to i64
  %57 = getelementptr inbounds [100 x double], [100 x double]* %7, i64 0, i64 %56
  %58 = load double, double* %57, align 8
  store double %58, double* %8, align 8
  %59 = load i32, i32* %4, align 4
  %60 = add nsw i32 %59, 1
  %61 = sext i32 %60 to i64
  %62 = getelementptr inbounds [100 x double], [100 x double]* %7, i64 0, i64 %61
  %63 = load double, double* %62, align 8
  %64 = load i32, i32* %4, align 4
  %65 = sext i32 %64 to i64
  %66 = getelementptr inbounds [100 x double], [100 x double]* %7, i64 0, i64 %65
  store double %63, double* %66, align 8
  %67 = load double, double* %8, align 8
  %68 = load i32, i32* %4, align 4
  %69 = add nsw i32 %68, 1
  %70 = sext i32 %69 to i64
  %71 = getelementptr inbounds [100 x double], [100 x double]* %7, i64 0, i64 %70
  store double %67, double* %71, align 8
  br label %72

72:                                               ; preds = %54, %43
  br label %73

73:                                               ; preds = %72
  %74 = load i32, i32* %4, align 4
  %75 = add nsw i32 %74, 1
  store i32 %75, i32* %4, align 4
  br label %38

76:                                               ; preds = %38
  br label %77

77:                                               ; preds = %76
  %78 = load i32, i32* %3, align 4
  %79 = add nsw i32 %78, 1
  store i32 %79, i32* %3, align 4
  br label %33

80:                                               ; preds = %33
  %81 = load double, double* %5, align 8
  %82 = getelementptr inbounds [100 x double], [100 x double]* %7, i64 0, i64 0
  %83 = load double, double* %82, align 16
  %84 = fsub double %81, %83
  %85 = load i32, i32* %2, align 4
  %86 = sub nsw i32 %85, 1
  %87 = sext i32 %86 to i64
  %88 = getelementptr inbounds [100 x double], [100 x double]* %7, i64 0, i64 %87
  %89 = load double, double* %88, align 8
  %90 = load double, double* %5, align 8
  %91 = fsub double %89, %90
  %92 = fcmp oeq double %84, %91
  br i1 %92, label %93, label %104

93:                                               ; preds = %80
  %94 = getelementptr inbounds [100 x double], [100 x double]* %7, i64 0, i64 0
  %95 = load double, double* %94, align 16
  %96 = call dereferenceable(272) %"class.std::basic_ostream"* @_ZNSolsEd(%"class.std::basic_ostream"* @_ZSt4cout, double %95)
  %97 = call dereferenceable(272) %"class.std::basic_ostream"* @_ZStlsISt11char_traitsIcEERSt13basic_ostreamIcT_ES5_c(%"class.std::basic_ostream"* dereferenceable(272) %96, i8 signext 44)
  %98 = load i32, i32* %2, align 4
  %99 = sub nsw i32 %98, 1
  %100 = sext i32 %99 to i64
  %101 = getelementptr inbounds [100 x double], [100 x double]* %7, i64 0, i64 %100
  %102 = load double, double* %101, align 8
  %103 = call dereferenceable(272) %"class.std::basic_ostream"* @_ZNSolsEd(%"class.std::basic_ostream"* %97, double %102)
  br label %129

104:                                              ; preds = %80
  %105 = load double, double* %5, align 8
  %106 = getelementptr inbounds [100 x double], [100 x double]* %7, i64 0, i64 0
  %107 = load double, double* %106, align 16
  %108 = fsub double %105, %107
  %109 = load i32, i32* %2, align 4
  %110 = sub nsw i32 %109, 1
  %111 = sext i32 %110 to i64
  %112 = getelementptr inbounds [100 x double], [100 x double]* %7, i64 0, i64 %111
  %113 = load double, double* %112, align 8
  %114 = load double, double* %5, align 8
  %115 = fsub double %113, %114
  %116 = fcmp ogt double %108, %115
  br i1 %116, label %117, label %121

117:                                              ; preds = %104
  %118 = getelementptr inbounds [100 x double], [100 x double]* %7, i64 0, i64 0
  %119 = load double, double* %118, align 16
  %120 = call dereferenceable(272) %"class.std::basic_ostream"* @_ZNSolsEd(%"class.std::basic_ostream"* @_ZSt4cout, double %119)
  br label %128

121:                                              ; preds = %104
  %122 = load i32, i32* %2, align 4
  %123 = sub nsw i32 %122, 1
  %124 = sext i32 %123 to i64
  %125 = getelementptr inbounds [100 x double], [100 x double]* %7, i64 0, i64 %124
  %126 = load double, double* %125, align 8
  %127 = call dereferenceable(272) %"class.std::basic_ostream"* @_ZNSolsEd(%"class.std::basic_ostream"* @_ZSt4cout, double %126)
  br label %128

128:                                              ; preds = %121, %117
  br label %129

129:                                              ; preds = %128, %93
  ret i32 0
}

declare dso_local dereferenceable(280) %"class.std::basic_istream"* @_ZNSirsERi(%"class.std::basic_istream"*, i32* dereferenceable(4)) #1

declare dso_local dereferenceable(280) %"class.std::basic_istream"* @_ZNSirsERd(%"class.std::basic_istream"*, double* dereferenceable(8)) #1

declare dso_local dereferenceable(272) %"class.std::basic_ostream"* @_ZStlsISt11char_traitsIcEERSt13basic_ostreamIcT_ES5_c(%"class.std::basic_ostream"* dereferenceable(272), i8 signext) #1

declare dso_local dereferenceable(272) %"class.std::basic_ostream"* @_ZNSolsEd(%"class.std::basic_ostream"*, double) #1

; Function Attrs: noinline uwtable
define internal void @_GLOBAL__sub_I_553.cpp() #0 section ".text.startup" {
  call void @__cxx_global_var_init()
  ret void
}


!llvm.module.flags = !{!0}
!llvm.ident = !{!1}

!0 = !{i32 1, !"wchar_size", i32 4}
!1 = !{!"clang version 10.0.0-4ubuntu1 "}
