; ModuleID = 'source-C-CXX/20/553.cpp'
source_filename = "source-C-CXX/20/553.cpp"
target datalayout = "e-m:e-p270:32:32-p271:32:32-p272:64:64-i64:64-f80:128-n8:16:32:64-S128"
target triple = "x86_64-pc-linux-gnu"

%"class.std::ios_base::Init" = type { i8 }
%"class.std::basic_istream" = type { i32 (...)**, i64, %"class.std::basic_ios" }
%"class.std::basic_ios" = type { %"class.std::ios_base", %"class.std::basic_ostream"*, i8, i8, %"class.std::basic_streambuf"*, %"class.std::ctype"*, %"class.std::num_put"*, %"class.std::num_get"* }
%"class.std::ios_base" = type { i32 (...)**, i64, i64, i32, i32, i32, %"struct.std::ios_base::_Callback_list"*, %"struct.std::ios_base::_Words", [8 x %"struct.std::ios_base::_Words"], i32, %"struct.std::ios_base::_Words"*, %"class.std::locale" }
%"struct.std::ios_base::_Callback_list" = type { %"struct.std::ios_base::_Callback_list"*, void (i32, %"class.std::ios_base"*, i32)*, i32, i32 }
%"struct.std::ios_base::_Words" = type { i8*, i64 }
%"class.std::locale" = type { %"class.std::locale::_Impl"* }
%"class.std::locale::_Impl" = type { i32, %"class.std::locale::facet"**, i64, %"class.std::locale::facet"**, i8** }
%"class.std::locale::facet" = type <{ i32 (...)**, i32, [4 x i8] }>
%"class.std::basic_ostream" = type { i32 (...)**, %"class.std::basic_ios" }
%"class.std::basic_streambuf" = type { i32 (...)**, i8*, i8*, i8*, i8*, i8*, i8*, %"class.std::locale" }
%"class.std::ctype" = type <{ %"class.std::locale::facet.base", [4 x i8], %struct.__locale_struct*, i8, [7 x i8], i32*, i32*, i16*, i8, [256 x i8], [256 x i8], i8, [6 x i8] }>
%"class.std::locale::facet.base" = type <{ i32 (...)**, i32 }>
%struct.__locale_struct = type { [13 x %struct.__locale_data*], i16*, i32*, i32*, [13 x i8*] }
%struct.__locale_data = type opaque
%"class.std::num_put" = type { %"class.std::locale::facet.base", [4 x i8] }
%"class.std::num_get" = type { %"class.std::locale::facet.base", [4 x i8] }

@_ZStL8__ioinit = internal global %"class.std::ios_base::Init" zeroinitializer, align 1
@__dso_handle = external hidden global i8
@_ZSt3cin = external global %"class.std::basic_istream", align 8
@_ZSt4cout = external global %"class.std::basic_ostream", align 8
@llvm.global_ctors = appending global [1 x { i32, void ()*, i8* }] [{ i32, void ()*, i8* } { i32 65535, void ()* @_GLOBAL__sub_I_553.cpp, i8* null }]

declare void @_ZNSt8ios_base4InitC1Ev(%"class.std::ios_base::Init"* nonnull align 1 dereferenceable(1)) unnamed_addr #0

; Function Attrs: nounwind
declare void @_ZNSt8ios_base4InitD1Ev(%"class.std::ios_base::Init"* nonnull align 1 dereferenceable(1)) unnamed_addr #1

; Function Attrs: nofree nounwind
declare i32 @__cxa_atexit(void (i8*)*, i8*, i8*) local_unnamed_addr #2

; Function Attrs: mustprogress norecurse sspstrong uwtable
define dso_local i32 @main() local_unnamed_addr #3 {
  %1 = alloca i8, align 1
  %2 = alloca i32, align 4
  %3 = alloca [100 x double], align 16
  %4 = bitcast i32* %2 to i8*
  call void @llvm.lifetime.start.p0i8(i64 4, i8* nonnull %4) #6
  %5 = bitcast [100 x double]* %3 to i8*
  call void @llvm.lifetime.start.p0i8(i64 800, i8* nonnull %5) #6
  %6 = call nonnull align 8 dereferenceable(16) %"class.std::basic_istream"* @_ZNSirsERi(%"class.std::basic_istream"* nonnull align 8 dereferenceable(16) @_ZSt3cin, i32* nonnull align 4 dereferenceable(4) %2)
  %7 = load i32, i32* %2, align 4, !tbaa !5
  %8 = icmp sgt i32 %7, 0
  br i1 %8, label %12, label %9

9:                                                ; preds = %0
  %10 = sitofp i32 %7 to double
  %11 = fdiv double 0.000000e+00, %10
  br label %69

12:                                               ; preds = %0, %12
  %13 = phi i64 [ %19, %12 ], [ 0, %0 ]
  %14 = phi double [ %18, %12 ], [ 0.000000e+00, %0 ]
  %15 = getelementptr inbounds [100 x double], [100 x double]* %3, i64 0, i64 %13
  %16 = call nonnull align 8 dereferenceable(16) %"class.std::basic_istream"* @_ZNSi10_M_extractIdEERSiRT_(%"class.std::basic_istream"* nonnull align 8 dereferenceable(16) @_ZSt3cin, double* nonnull align 8 dereferenceable(8) %15)
  %17 = load double, double* %15, align 8, !tbaa !9
  %18 = fadd double %14, %17
  %19 = add nuw nsw i64 %13, 1
  %20 = load i32, i32* %2, align 4, !tbaa !5
  %21 = sext i32 %20 to i64
  %22 = icmp slt i64 %19, %21
  br i1 %22, label %12, label %23, !llvm.loop !11

23:                                               ; preds = %12
  %24 = sitofp i32 %20 to double
  %25 = fdiv double %18, %24
  %26 = icmp sgt i32 %20, 0
  br i1 %26, label %27, label %69

27:                                               ; preds = %23
  %28 = icmp eq i32 %20, 1
  br i1 %28, label %69, label %29

29:                                               ; preds = %27
  %30 = add nsw i32 %20, -1
  %31 = zext i32 %30 to i64
  %32 = getelementptr inbounds [100 x double], [100 x double]* %3, i64 0, i64 0
  %33 = and i64 %31, 1
  %34 = icmp eq i32 %30, 1
  %35 = and i64 %31, 4294967294
  %36 = icmp eq i64 %33, 0
  br label %37

37:                                               ; preds = %29, %66
  %38 = phi i32 [ %67, %66 ], [ 0, %29 ]
  %39 = load double, double* %32, align 16, !tbaa !9
  br i1 %34, label %56, label %40

40:                                               ; preds = %37, %99
  %41 = phi double [ %100, %99 ], [ %39, %37 ]
  %42 = phi i64 [ %52, %99 ], [ 0, %37 ]
  %43 = phi i64 [ %101, %99 ], [ %35, %37 ]
  %44 = or i64 %42, 1
  %45 = getelementptr inbounds [100 x double], [100 x double]* %3, i64 0, i64 %44
  %46 = load double, double* %45, align 8, !tbaa !9
  %47 = fcmp ogt double %41, %46
  br i1 %47, label %48, label %50

48:                                               ; preds = %40
  %49 = getelementptr inbounds [100 x double], [100 x double]* %3, i64 0, i64 %42
  store double %46, double* %49, align 16, !tbaa !9
  store double %41, double* %45, align 8, !tbaa !9
  br label %50

50:                                               ; preds = %48, %40
  %51 = phi double [ %41, %48 ], [ %46, %40 ]
  %52 = add nuw nsw i64 %42, 2
  %53 = getelementptr inbounds [100 x double], [100 x double]* %3, i64 0, i64 %52
  %54 = load double, double* %53, align 16, !tbaa !9
  %55 = fcmp ogt double %51, %54
  br i1 %55, label %97, label %99

56:                                               ; preds = %99, %37
  %57 = phi double [ %39, %37 ], [ %100, %99 ]
  %58 = phi i64 [ 0, %37 ], [ %52, %99 ]
  br i1 %36, label %66, label %59

59:                                               ; preds = %56
  %60 = add nuw nsw i64 %58, 1
  %61 = getelementptr inbounds [100 x double], [100 x double]* %3, i64 0, i64 %60
  %62 = load double, double* %61, align 8, !tbaa !9
  %63 = fcmp ogt double %57, %62
  br i1 %63, label %64, label %66

64:                                               ; preds = %59
  %65 = getelementptr inbounds [100 x double], [100 x double]* %3, i64 0, i64 %58
  store double %62, double* %65, align 8, !tbaa !9
  store double %57, double* %61, align 8, !tbaa !9
  br label %66

66:                                               ; preds = %64, %59, %56
  %67 = add nuw nsw i32 %38, 1
  %68 = icmp eq i32 %67, %20
  br i1 %68, label %69, label %37, !llvm.loop !13

69:                                               ; preds = %66, %27, %9, %23
  %70 = phi double [ %11, %9 ], [ %25, %23 ], [ %25, %27 ], [ %25, %66 ]
  %71 = phi i32 [ %7, %9 ], [ %20, %23 ], [ 1, %27 ], [ %20, %66 ]
  %72 = getelementptr inbounds [100 x double], [100 x double]* %3, i64 0, i64 0
  %73 = load double, double* %72, align 16, !tbaa !9
  %74 = fsub double %70, %73
  %75 = add nsw i32 %71, -1
  %76 = sext i32 %75 to i64
  %77 = getelementptr inbounds [100 x double], [100 x double]* %3, i64 0, i64 %76
  %78 = load double, double* %77, align 8, !tbaa !9
  %79 = fsub double %78, %70
  %80 = fcmp oeq double %74, %79
  br i1 %80, label %81, label %90

81:                                               ; preds = %69
  %82 = call nonnull align 8 dereferenceable(8) %"class.std::basic_ostream"* @_ZNSo9_M_insertIdEERSoT_(%"class.std::basic_ostream"* nonnull align 8 dereferenceable(8) @_ZSt4cout, double %73)
  call void @llvm.lifetime.start.p0i8(i64 1, i8* nonnull %1)
  store i8 44, i8* %1, align 1, !tbaa !14
  %83 = call nonnull align 8 dereferenceable(8) %"class.std::basic_ostream"* @_ZSt16__ostream_insertIcSt11char_traitsIcEERSt13basic_ostreamIT_T0_ES6_PKS3_l(%"class.std::basic_ostream"* nonnull align 8 dereferenceable(8) %82, i8* nonnull %1, i64 1)
  call void @llvm.lifetime.end.p0i8(i64 1, i8* nonnull %1)
  %84 = load i32, i32* %2, align 4, !tbaa !5
  %85 = add nsw i32 %84, -1
  %86 = sext i32 %85 to i64
  %87 = getelementptr inbounds [100 x double], [100 x double]* %3, i64 0, i64 %86
  %88 = load double, double* %87, align 8, !tbaa !9
  %89 = call nonnull align 8 dereferenceable(8) %"class.std::basic_ostream"* @_ZNSo9_M_insertIdEERSoT_(%"class.std::basic_ostream"* nonnull align 8 dereferenceable(8) %83, double %88)
  br label %96

90:                                               ; preds = %69
  %91 = fcmp ogt double %74, %79
  br i1 %91, label %92, label %94

92:                                               ; preds = %90
  %93 = call nonnull align 8 dereferenceable(8) %"class.std::basic_ostream"* @_ZNSo9_M_insertIdEERSoT_(%"class.std::basic_ostream"* nonnull align 8 dereferenceable(8) @_ZSt4cout, double %73)
  br label %96

94:                                               ; preds = %90
  %95 = call nonnull align 8 dereferenceable(8) %"class.std::basic_ostream"* @_ZNSo9_M_insertIdEERSoT_(%"class.std::basic_ostream"* nonnull align 8 dereferenceable(8) @_ZSt4cout, double %78)
  br label %96

96:                                               ; preds = %92, %94, %81
  call void @llvm.lifetime.end.p0i8(i64 800, i8* nonnull %5) #6
  call void @llvm.lifetime.end.p0i8(i64 4, i8* nonnull %4) #6
  ret i32 0

97:                                               ; preds = %50
  %98 = getelementptr inbounds [100 x double], [100 x double]* %3, i64 0, i64 %44
  store double %54, double* %98, align 8, !tbaa !9
  store double %51, double* %53, align 16, !tbaa !9
  br label %99

99:                                               ; preds = %97, %50
  %100 = phi double [ %51, %97 ], [ %54, %50 ]
  %101 = add i64 %43, -2
  %102 = icmp eq i64 %101, 0
  br i1 %102, label %56, label %40, !llvm.loop !15
}

; Function Attrs: argmemonly mustprogress nofree nosync nounwind willreturn
declare void @llvm.lifetime.start.p0i8(i64 immarg, i8* nocapture) #4

declare nonnull align 8 dereferenceable(16) %"class.std::basic_istream"* @_ZNSirsERi(%"class.std::basic_istream"* nonnull align 8 dereferenceable(16), i32* nonnull align 4 dereferenceable(4)) local_unnamed_addr #0

; Function Attrs: argmemonly mustprogress nofree nosync nounwind willreturn
declare void @llvm.lifetime.end.p0i8(i64 immarg, i8* nocapture) #4

declare nonnull align 8 dereferenceable(16) %"class.std::basic_istream"* @_ZNSi10_M_extractIdEERSiRT_(%"class.std::basic_istream"* nonnull align 8 dereferenceable(16), double* nonnull align 8 dereferenceable(8)) local_unnamed_addr #0

declare nonnull align 8 dereferenceable(8) %"class.std::basic_ostream"* @_ZNSo9_M_insertIdEERSoT_(%"class.std::basic_ostream"* nonnull align 8 dereferenceable(8), double) local_unnamed_addr #0

declare nonnull align 8 dereferenceable(8) %"class.std::basic_ostream"* @_ZSt16__ostream_insertIcSt11char_traitsIcEERSt13basic_ostreamIT_T0_ES6_PKS3_l(%"class.std::basic_ostream"* nonnull align 8 dereferenceable(8), i8*, i64) local_unnamed_addr #0

; Function Attrs: sspstrong uwtable
define internal void @_GLOBAL__sub_I_553.cpp() #5 section ".text.startup" {
  tail call void @_ZNSt8ios_base4InitC1Ev(%"class.std::ios_base::Init"* nonnull align 1 dereferenceable(1) @_ZStL8__ioinit)
  %1 = tail call i32 @__cxa_atexit(void (i8*)* bitcast (void (%"class.std::ios_base::Init"*)* @_ZNSt8ios_base4InitD1Ev to void (i8*)*), i8* getelementptr inbounds (%"class.std::ios_base::Init", %"class.std::ios_base::Init"* @_ZStL8__ioinit, i64 0, i32 0), i8* nonnull @__dso_handle) #6
  ret void
}


!llvm.module.flags = !{!0, !1, !2, !3}
!llvm.ident = !{!4}

!0 = !{i32 1, !"wchar_size", i32 4}
!1 = !{i32 7, !"PIC Level", i32 2}
!2 = !{i32 7, !"PIE Level", i32 2}
!3 = !{i32 7, !"uwtable", i32 1}
!4 = !{!"clang version 13.0.0"}
!5 = !{!6, !6, i64 0}
!6 = !{!"int", !7, i64 0}
!7 = !{!"omnipotent char", !8, i64 0}
!8 = !{!"Simple C++ TBAA"}
!9 = !{!10, !10, i64 0}
!10 = !{!"double", !7, i64 0}
!11 = distinct !{!11, !12}
!12 = !{!"llvm.loop.mustprogress"}
!13 = distinct !{!13, !12}
!14 = !{!7, !7, i64 0}
!15 = distinct !{!15, !12}
